target datalayout = "e-m:e-p270:32:32-p271:32:32-p272:64:64-i64:64-i128:128-f80:128-n8:16:32:64-S128"
target triple = "x86_64-pc-linux-gnu"

%struct.dirent = type { i64, i64, i16, i8, [256 x i8] }

@.str = private unnamed_addr constant [49 x i8] c"resetting unlogged relations: cleanup %d init %d\00", align 1
@.str.1 = private unnamed_addr constant [9 x i8] c"reinit.c\00", align 1
@__func__.ResetUnloggedRelations = private unnamed_addr constant [23 x i8] c"ResetUnloggedRelations\00", align 1
@CurrentMemoryContext = external global ptr, align 8
@.str.2 = private unnamed_addr constant [5 x i8] c"base\00", align 1
@.str.3 = private unnamed_addr constant [10 x i8] c"pg_tblspc\00", align 1
@.str.4 = private unnamed_addr constant [2 x i8] c".\00", align 1
@.str.5 = private unnamed_addr constant [3 x i8] c"..\00", align 1
@.str.6 = private unnamed_addr constant [9 x i8] c"%s/%s/%s\00", align 1
@.str.7 = private unnamed_addr constant [16 x i8] c"PG_18_202502112\00", align 1

; Function Attrs: inlinehint nounwind uwtable
define internal ptr @MemoryContextSwitchTo(ptr noundef %0) #4 {
  %2 = alloca ptr, align 8
  %3 = alloca ptr, align 8
  store ptr %0, ptr %2, align 8
  call void @llvm.lifetime.start.p0(i64 8, ptr %3) #8
  %4 = load ptr, ptr @CurrentMemoryContext, align 8
  store ptr %4, ptr %3, align 8
  %5 = load ptr, ptr %2, align 8
  store ptr %5, ptr @CurrentMemoryContext, align 8
  %6 = load ptr, ptr %3, align 8
  call void @llvm.lifetime.end.p0(i64 8, ptr %3) #8
  ret ptr %6
}

; Function Attrs: nounwind uwtable
define dso_local void @ResetUnloggedRelations(i32 noundef %0) #0 {
  %2 = alloca i32, align 4
  %3 = alloca [1050 x i8], align 16
  %4 = alloca ptr, align 8
  %5 = alloca ptr, align 8
  %6 = alloca ptr, align 8
  %7 = alloca ptr, align 8
  %8 = alloca i32, align 4
  store i32 %0, ptr %2, align 4
  call void @llvm.lifetime.start.p0(i64 1050, ptr %3) #8
  call void @llvm.lifetime.start.p0(i64 8, ptr %4) #8
  call void @llvm.lifetime.start.p0(i64 8, ptr %5) #8
  call void @llvm.lifetime.start.p0(i64 8, ptr %6) #8
  call void @llvm.lifetime.start.p0(i64 8, ptr %7) #8
  br label %9

9:                                                ; preds = %1
  br i1 false, label %10, label %12

10:                                               ; preds = %9
  %11 = call zeroext i1 @errstart_cold(i32 noundef 14, ptr noundef null) #9
  br i1 %11, label %14, label %24

12:                                               ; preds = %9
  %13 = call zeroext i1 @errstart(i32 noundef 14, ptr noundef null)
  br i1 %13, label %14, label %24

14:                                               ; preds = %12, %10
  %15 = load i32, ptr %2, align 4
  %16 = and i32 %15, 1
  %17 = icmp ne i32 %16, 0
  %18 = zext i1 %17 to i32
  %19 = load i32, ptr %2, align 4
  %20 = and i32 %19, 2
  %21 = icmp ne i32 %20, 0
  %22 = zext i1 %21 to i32
  %23 = call i32 (ptr, ...) @errmsg_internal(ptr noundef @.str, i32 noundef %18, i32 noundef %22)
  call void @errfinish(ptr noundef @.str.1, i32 noundef 58, ptr noundef @__func__.ResetUnloggedRelations)
  br label %24

24:                                               ; preds = %14, %12, %10
  br label %25

25:                                               ; preds = %24
  br label %26

26:                                               ; preds = %25
  br label %27

27:                                               ; preds = %26
  br label %28

28:                                               ; preds = %27
  br label %29

29:                                               ; preds = %28
  store i32 1, ptr %8, align 4
  %30 = load ptr, ptr @CurrentMemoryContext, align 8
  %31 = call ptr @AllocSetContextCreateInternal(ptr noundef %30, ptr noundef @__func__.ResetUnloggedRelations, i64 noundef 0, i64 noundef 8192, i64 noundef 8388608)
  store ptr %31, ptr %6, align 8
  %32 = load ptr, ptr %6, align 8
  %33 = call ptr @MemoryContextSwitchTo(ptr noundef %32)
  store ptr %33, ptr %7, align 8
  call void @begin_startup_progress_phase()
  %34 = load i32, ptr %2, align 4
  call void @ResetUnloggedRelationsInTablespaceDir(ptr noundef @.str.2, i32 noundef %34)
  %35 = call ptr @AllocateDir(ptr noundef @.str.3)
  store ptr %35, ptr %4, align 8
  br label %36

36:                                               ; preds = %53, %52, %29
  %37 = load ptr, ptr %4, align 8
  %38 = call ptr @ReadDir(ptr noundef %37, ptr noundef @.str.3)
  store ptr %38, ptr %5, align 8
  %39 = icmp ne ptr %38, null
  br i1 %39, label %40, label %61

40:                                               ; preds = %36
  %41 = load ptr, ptr %5, align 8
  %42 = getelementptr inbounds nuw %struct.dirent, ptr %41, i32 0, i32 4
  %43 = getelementptr inbounds [256 x i8], ptr %42, i64 0, i64 0
  %44 = call i32 @strcmp(ptr noundef %43, ptr noundef @.str.4) #10
  %45 = icmp eq i32 %44, 0
  br i1 %45, label %52, label %46

46:                                               ; preds = %40
  %47 = load ptr, ptr %5, align 8
  %48 = getelementptr inbounds nuw %struct.dirent, ptr %47, i32 0, i32 4
  %49 = getelementptr inbounds [256 x i8], ptr %48, i64 0, i64 0
  %50 = call i32 @strcmp(ptr noundef %49, ptr noundef @.str.5) #10
  %51 = icmp eq i32 %50, 0
  br i1 %51, label %52, label %53

52:                                               ; preds = %46, %40
  br label %36, !llvm.loop !4

53:                                               ; preds = %46
  %54 = getelementptr inbounds [1050 x i8], ptr %3, i64 0, i64 0
  %55 = load ptr, ptr %5, align 8
  %56 = getelementptr inbounds nuw %struct.dirent, ptr %55, i32 0, i32 4
  %57 = getelementptr inbounds [256 x i8], ptr %56, i64 0, i64 0
  %58 = call i32 (ptr, i64, ptr, ...) @pg_snprintf(ptr noundef %54, i64 noundef 1050, ptr noundef @.str.6, ptr noundef @.str.3, ptr noundef %57, ptr noundef @.str.7)
  %59 = getelementptr inbounds [1050 x i8], ptr %3, i64 0, i64 0
  %60 = load i32, ptr %2, align 4
  call void @ResetUnloggedRelationsInTablespaceDir(ptr noundef %59, i32 noundef %60)
  br label %36, !llvm.loop !4

61:                                               ; preds = %36
  %62 = load ptr, ptr %4, align 8
  %63 = call i32 @FreeDir(ptr noundef %62)
  %64 = load ptr, ptr %7, align 8
  %65 = call ptr @MemoryContextSwitchTo(ptr noundef %64)
  %66 = load ptr, ptr %6, align 8
  call void @MemoryContextDelete(ptr noundef %66)
  call void @llvm.lifetime.end.p0(i64 8, ptr %7) #8
  call void @llvm.lifetime.end.p0(i64 8, ptr %6) #8
  call void @llvm.lifetime.end.p0(i64 8, ptr %5) #8
  call void @llvm.lifetime.end.p0(i64 8, ptr %4) #8
  call void @llvm.lifetime.end.p0(i64 1050, ptr %3) #8
  ret void
}