; Function Attrs: nounwind uwtable
define dso_local void @ResetUnloggedRelations(i32 noundef %0) local_unnamed_addr #0 {
  %2 = alloca [1050 x i8], align 16
  call void @llvm.lifetime.start.p0(i64 1050, ptr nonnull %2) #9
  %3 = tail call zeroext i1 @errstart(i32 noundef 14, ptr noundef null) #9
  br i1 %3, label %4, label %8

4:                                                ; preds = %1
  %5 = and i32 %0, 1
  %6 = lshr i32 %0, 1
  %.lobit = and i32 %6, 1
  %7 = tail call i32 (ptr, ...) @errmsg_internal(ptr noundef nonnull @.str, i32 noundef %5, i32 noundef %.lobit) #9
  tail call void @errfinish(ptr noundef nonnull @.str.1, i32 noundef 58, ptr noundef nonnull @__func__.ResetUnloggedRelations) #9
  br label %8

8:                                                ; preds = %1, %4
  %9 = load ptr, ptr @CurrentMemoryContext, align 8
  %10 = tail call ptr @AllocSetContextCreateInternal(ptr noundef %9, ptr noundef nonnull @__func__.ResetUnloggedRelations, i64 noundef 0, i64 noundef 8192, i64 noundef 8388608) #9
  %11 = load ptr, ptr @CurrentMemoryContext, align 8
  store ptr %10, ptr @CurrentMemoryContext, align 8
  tail call void @begin_startup_progress_phase() #9
  tail call fastcc void @ResetUnloggedRelationsInTablespaceDir(ptr noundef nonnull @.str.2, i32 noundef %0)
  %12 = tail call ptr @AllocateDir(ptr noundef nonnull @.str.3) #9
  %13 = tail call ptr @ReadDir(ptr noundef %12, ptr noundef nonnull @.str.3) #9
  %.not15 = icmp eq ptr %13, null
  br i1 %.not15, label %._crit_edge, label %sub_0

sub_0:                                            ; preds = %8, %.backedge
  %14 = phi ptr [ %25, %.backedge ], [ %13, %8 ]
  %15 = getelementptr inbounds nuw i8, ptr %14, i64 19
  %16 = load i8, ptr %15, align 1
  %.not16 = icmp eq i8 %16, 46
  br i1 %.not16, label %.tail, label %.tail11.thread

.tail:                                            ; preds = %sub_0
  %17 = getelementptr inbounds nuw i8, ptr %14, i64 20
  %18 = load i8, ptr %17, align 1
  %19 = icmp eq i8 %18, 0
  br i1 %19, label %.backedge, label %sub_113

sub_113:                                          ; preds = %.tail
  %20 = getelementptr inbounds nuw i8, ptr %14, i64 20
  %21 = load i8, ptr %20, align 1
  %.not18 = icmp eq i8 %21, 46
  br i1 %.not18, label %.tail11, label %.tail11.thread

.tail11:                                          ; preds = %sub_113
  %22 = getelementptr inbounds nuw i8, ptr %14, i64 21
  %23 = load i8, ptr %22, align 1
  %24 = icmp eq i8 %23, 0
  br i1 %24, label %.backedge, label %.tail11.thread

.backedge:                                        ; preds = %.tail, %.tail11, %.tail11.thread
  %25 = call ptr @ReadDir(ptr noundef %12, ptr noundef nonnull @.str.3) #9
  %.not = icmp eq ptr %25, null
  br i1 %.not, label %._crit_edge, label %sub_0, !llvm.loop !4

.tail11.thread:                                   ; preds = %sub_0, %sub_113, %.tail11
  %26 = call i32 (ptr, i64, ptr, ...) @pg_snprintf(ptr noundef nonnull %2, i64 noundef 1050, ptr noundef nonnull @.str.6, ptr noundef nonnull @.str.3, ptr noundef nonnull %15, ptr noundef nonnull @.str.7) #9
  call fastcc void @ResetUnloggedRelationsInTablespaceDir(ptr noundef nonnull %2, i32 noundef %0)
  br label %.backedge

._crit_edge:                                      ; preds = %.backedge, %8
  %27 = call i32 @FreeDir(ptr noundef %12) #9
  store ptr %11, ptr @CurrentMemoryContext, align 8
  call void @MemoryContextDelete(ptr noundef %10) #9
  call void @llvm.lifetime.end.p0(i64 1050, ptr nonnull %2) #9
  ret void
}